; Function Attrs: nounwind uwtable
define noalias ptr @av_dynamic_hdr_plus_alloc(ptr noundef writeonly captures(address_is_null) %0) local_unnamed_addr #0 {
  %2 = tail call noalias ptr @av_mallocz(i64 noundef 11304) #9
  %.not = icmp eq ptr %2, null
  %.not7 = icmp eq ptr %0, null
  %or.cond = or i1 %.not7, %.not
  br i1 %or.cond, label %4, label %3

3:                                                ; preds = %1
  store i64 11304, ptr %0, align 8, !tbaa !4
  br label %4

4:                                                ; preds = %3, %1
  ret ptr %2
}